; Function Attrs: mustprogress nounwind uwtable
define hidden void @_ZN11FileMapInfo9log_pathsEPKcii(ptr nocapture nonnull readnone align 8 %0, ptr noundef %1, i32 noundef %2, i32 noundef %3) local_unnamed_addr #0 align 2 {
  %5 = alloca %class.LogStream, align 8
  %6 = load volatile ptr, ptr getelementptr inbounds (i8, ptr @_ZN16LogTagSetMappingILN6LogTag4typeE16ELS1_111ELS1_0ELS1_0ELS1_0ELS1_0EE7_tagsetE, i64 64), align 8
  %.not = icmp eq ptr %6, null
  br i1 %.not, label %30, label %7

7:                                                ; preds = %4
  call void @_ZN12outputStreamC2Eb(ptr noundef nonnull align 8 dereferenceable(56) %5, i1 noundef zeroext false) #25
  store ptr getelementptr inbounds inrange(-16, 40) (i8, ptr @_ZTV17LogStreamImplBase, i64 16), ptr %5, align 8
  %8 = getelementptr inbounds i8, ptr %5, i64 56
  call void @_ZN17LogStreamImplBase10LineBufferC1Ev(ptr noundef nonnull align 8 dereferenceable(88) %8) #25
  %9 = getelementptr inbounds i8, ptr %5, i64 144
  store i32 3, ptr %9, align 8
  %.sroa.21.0..sroa_idx.i.i = getelementptr inbounds i8, ptr %5, i64 152
  store ptr @_ZN16LogTagSetMappingILN6LogTag4typeE16ELS1_111ELS1_0ELS1_0ELS1_0ELS1_0EE7_tagsetE, ptr %.sroa.21.0..sroa_idx.i.i, align 8
  store ptr getelementptr inbounds inrange(-16, 40) (i8, ptr @_ZTV9LogStream, i64 16), ptr %5, align 8
  call void (ptr, ptr, ...) @_ZN12outputStream5printEPKcz(ptr noundef nonnull align 8 dereferenceable(56) %5, ptr noundef nonnull @.str.76, ptr noundef %1) #25
  %10 = icmp slt i32 %2, %3
  br i1 %10, label %.lr.ph.preheader, label %._crit_edge

.lr.ph.preheader:                                 ; preds = %7
  %11 = sext i32 %2 to i64
  br label %.lr.ph

.lr.ph:                                           ; preds = %.lr.ph.preheader, %_ZNK20SharedClassPathEntry4nameEv.exit
  %indvars.iv = phi i64 [ %11, %.lr.ph.preheader ], [ %indvars.iv.next, %_ZNK20SharedClassPathEntry4nameEv.exit ]
  %.067 = phi ptr [ @.str.44, %.lr.ph.preheader ], [ %29, %_ZNK20SharedClassPathEntry4nameEv.exit ]
  %12 = load ptr, ptr @_ZN11FileMapInfo18_shared_path_tableE, align 8
  %13 = getelementptr inbounds i8, ptr %12, i64 8
  %14 = getelementptr inbounds ptr, ptr %13, i64 %indvars.iv
  %15 = load ptr, ptr %14, align 8
  %16 = call noundef zeroext i1 @_ZN9CDSConfig16is_using_archiveEv() #25
  %17 = load i8, ptr %15, align 8
  %18 = icmp eq i8 %17, 0
  %or.cond.i = select i1 %16, i1 %18, i1 false
  br i1 %or.cond.i, label %19, label %25

19:                                               ; preds = %.lr.ph
  %20 = load ptr, ptr @_ZN11ClassLoader10_jrt_entryE, align 8
  %21 = load ptr, ptr %20, align 8
  %22 = getelementptr inbounds i8, ptr %21, i64 40
  %23 = load ptr, ptr %22, align 8
  %24 = call noundef ptr %23(ptr noundef nonnull align 8 dereferenceable(16) %20) #25
  br label %_ZNK20SharedClassPathEntry4nameEv.exit

25:                                               ; preds = %.lr.ph
  %26 = getelementptr inbounds i8, ptr %15, i64 24
  %27 = load ptr, ptr %26, align 8
  %28 = getelementptr inbounds i8, ptr %27, i64 4
  br label %_ZNK20SharedClassPathEntry4nameEv.exit

_ZNK20SharedClassPathEntry4nameEv.exit:           ; preds = %19, %25
  %.0.i = phi ptr [ %24, %19 ], [ %28, %25 ]
  call void (ptr, ptr, ...) @_ZN12outputStream5printEPKcz(ptr noundef nonnull align 8 dereferenceable(56) %5, ptr noundef nonnull @.str.77, ptr noundef %.067, ptr noundef %.0.i) #25
  %29 = call noundef ptr @_ZN2os14path_separatorEv() #25
  %indvars.iv.next = add nsw i64 %indvars.iv, 1
  %lftr.wideiv = trunc i64 %indvars.iv.next to i32
  %exitcond.not = icmp eq i32 %lftr.wideiv, %3
  br i1 %exitcond.not, label %._crit_edge, label %.lr.ph, !llvm.loop !24

._crit_edge:                                      ; preds = %_ZNK20SharedClassPathEntry4nameEv.exit, %7
  call void @_ZN12outputStream2crEv(ptr noundef nonnull align 8 dereferenceable(56) %5) #25
  call void @_ZN13LogStreamImplI15LogTargetHandleED2Ev(ptr noundef nonnull align 8 dereferenceable(160) %5) #25
  br label %30

30:                                               ; preds = %._crit_edge, %4
  ret void
}